target datalayout = "e-m:e-p270:32:32-p271:32:32-p272:64:64-i64:64-i128:128-f80:128-n8:16:32:64-S128"
target triple = "x86_64-pc-linux-gnu"

%struct.jit_State = type { %struct.GCtrace, ptr, ptr, ptr, ptr, ptr, ptr, i32, i32, i32, i8, i8, %struct.IRType1, i8, %struct.FoldState, ptr, i32, i32, i32, i32, i32, i32, i32, [1 x i32], [5 x %union.TValue], [3 x %union.TValue], ptr, i32, i32, i32, i32, ptr, ptr, i32, i32, i8, ptr, i32, i32, i16, [101 x i16], [258 x i32], [15 x i32], [16 x ptr], [64 x %struct.HotPenalty], i32, [16 x %struct.BPropEntry], i32, %struct.ScEvEntry, ptr, i32, i32, i32, ptr, i32, i32, ptr, ptr, ptr, i64, i64, %union.TValue, ptr, i32, i32 }
%struct.GCtrace = type { %struct.GCRef, i8, i8, i16, i32, i32, %struct.GCRef, ptr, i32, i32, ptr, ptr, %struct.GCRef, %struct.MRef, i32, i32, ptr, i32, i16, i16, i16, i16, i16, i16, i16, i8, i8, i8, i8 }
%struct.GCRef = type { i64 }
%struct.MRef = type { i64 }
%struct.IRType1 = type { i8 }
%struct.FoldState = type { %union.IRIns, [2 x %union.IRIns], [2 x %union.IRIns] }
%union.IRIns = type { %struct.GCRef }
%struct.HotPenalty = type { %struct.MRef, i16, i16 }
%struct.BPropEntry = type { i16, i16, i32 }
%struct.ScEvEntry = type { %struct.MRef, i16, i16, i16, i16, %struct.IRType1, i8 }
%union.TValue = type { i64 }
%struct.GCproto = type { %struct.GCRef, i8, i8, i8, i8, i32, i32, %struct.GCRef, %struct.MRef, %struct.MRef, i32, i32, i32, i8, i8, i16, %struct.GCRef, i32, i32, %struct.MRef, %struct.MRef, %struct.MRef }

; Function Attrs: nounwind uwtable
define internal void @trace_unpatch(ptr noundef %0, ptr noundef %1) #3 {
  %3 = alloca ptr, align 8
  %4 = alloca ptr, align 8
  %5 = alloca i32, align 4
  %6 = alloca ptr, align 8
  %7 = alloca i32, align 4
  store ptr %0, ptr %3, align 8, !tbaa !4
  store ptr %1, ptr %4, align 8, !tbaa !36
  call void @llvm.lifetime.start.p0(i64 4, ptr %5) #11
  %8 = load ptr, ptr %4, align 8, !tbaa !36
  %9 = getelementptr inbounds nuw %struct.GCtrace, ptr %8, i32 0, i32 14
  %10 = load i32, ptr %9, align 8, !tbaa !145
  %11 = and i32 %10, 255
  store i32 %11, ptr %5, align 4, !tbaa !9
  call void @llvm.lifetime.start.p0(i64 8, ptr %6) #11
  %12 = load ptr, ptr %4, align 8, !tbaa !36
  %13 = getelementptr inbounds nuw %struct.GCtrace, ptr %12, i32 0, i32 13
  %14 = getelementptr inbounds nuw %struct.MRef, ptr %13, i32 0, i32 0
  %15 = load i64, ptr %14, align 8, !tbaa !146
  %16 = inttoptr i64 %15 to ptr
  store ptr %16, ptr %6, align 8, !tbaa !67
  %17 = load i32, ptr %5, align 4, !tbaa !9
  %18 = icmp eq i32 %17, 88
  br i1 %18, label %19, label %20

19:                                               ; preds = %2
  store i32 1, ptr %7, align 4
  br label %70

20:                                               ; preds = %2
  %21 = load ptr, ptr %6, align 8, !tbaa !67
  %22 = load i32, ptr %21, align 4, !tbaa !9
  %23 = and i32 %22, 255
  switch i32 %23, label %68 [
    i32 81, label %24
    i32 84, label %39
    i32 87, label %39
    i32 88, label %44
    i32 91, label %63
  ]

24:                                               ; preds = %20
  %25 = load ptr, ptr %4, align 8, !tbaa !36
  %26 = getelementptr inbounds nuw %struct.GCtrace, ptr %25, i32 0, i32 14
  %27 = load i32, ptr %26, align 8, !tbaa !145
  %28 = load ptr, ptr %6, align 8, !tbaa !67
  store i32 %27, ptr %28, align 4, !tbaa !9
  %29 = load ptr, ptr %4, align 8, !tbaa !36
  %30 = getelementptr inbounds nuw %struct.GCtrace, ptr %29, i32 0, i32 14
  %31 = load i32, ptr %30, align 8, !tbaa !145
  %32 = lshr i32 %31, 16
  %33 = zext i32 %32 to i64
  %34 = sub nsw i64 %33, 32768
  %35 = load ptr, ptr %6, align 8, !tbaa !67
  %36 = getelementptr inbounds i32, ptr %35, i64 %34
  store ptr %36, ptr %6, align 8, !tbaa !67
  %37 = load ptr, ptr %6, align 8, !tbaa !67
  %38 = getelementptr inbounds i8, ptr %37, i64 0
  store i8 77, ptr %38, align 1, !tbaa !11
  br label %69

39:                                               ; preds = %20, %20
  %40 = load ptr, ptr %4, align 8, !tbaa !36
  %41 = getelementptr inbounds nuw %struct.GCtrace, ptr %40, i32 0, i32 14
  %42 = load i32, ptr %41, align 8, !tbaa !145
  %43 = load ptr, ptr %6, align 8, !tbaa !67
  store i32 %42, ptr %43, align 4, !tbaa !9
  br label %69

44:                                               ; preds = %20
  %45 = load ptr, ptr %6, align 8, !tbaa !67
  %46 = load i32, ptr %45, align 4, !tbaa !9
  %47 = lshr i32 %46, 16
  %48 = zext i32 %47 to i64
  %49 = sub nsw i64 %48, 32768
  %50 = add nsw i64 %49, 2
  %51 = load ptr, ptr %6, align 8, !tbaa !67
  %52 = getelementptr inbounds i32, ptr %51, i64 %50
  store ptr %52, ptr %6, align 8, !tbaa !67
  %53 = load ptr, ptr %6, align 8, !tbaa !67
  %54 = load i32, ptr %53, align 4, !tbaa !9
  %55 = and i32 %54, 255
  %56 = icmp eq i32 %55, 84
  br i1 %56, label %57, label %62

57:                                               ; preds = %44
  %58 = load ptr, ptr %4, align 8, !tbaa !36
  %59 = getelementptr inbounds nuw %struct.GCtrace, ptr %58, i32 0, i32 14
  %60 = load i32, ptr %59, align 8, !tbaa !145
  %61 = load ptr, ptr %6, align 8, !tbaa !67
  store i32 %60, ptr %61, align 4, !tbaa !9
  br label %62

62:                                               ; preds = %57, %44
  br label %69

63:                                               ; preds = %20
  %64 = load ptr, ptr %4, align 8, !tbaa !36
  %65 = getelementptr inbounds nuw %struct.GCtrace, ptr %64, i32 0, i32 14
  %66 = load i32, ptr %65, align 8, !tbaa !145
  %67 = load ptr, ptr %6, align 8, !tbaa !67
  store i32 %66, ptr %67, align 4, !tbaa !9
  br label %69

68:                                               ; preds = %20
  br label %69

69:                                               ; preds = %68, %63, %62, %39, %24
  store i32 0, ptr %7, align 4
  br label %70

70:                                               ; preds = %69, %19
  call void @llvm.lifetime.end.p0(i64 8, ptr %6) #11
  call void @llvm.lifetime.end.p0(i64 4, ptr %5) #11
  %71 = load i32, ptr %7, align 4
  switch i32 %71, label %73 [
    i32 0, label %72
    i32 1, label %72
  ]

72:                                               ; preds = %70, %70
  ret void

73:                                               ; preds = %70
  unreachable
}

; Function Attrs: nounwind uwtable
define internal void @trace_flushroot(ptr noundef %0, ptr noundef %1) #3 {
  %3 = alloca ptr, align 8
  %4 = alloca ptr, align 8
  %5 = alloca ptr, align 8
  %6 = alloca ptr, align 8
  store ptr %0, ptr %3, align 8, !tbaa !4
  store ptr %1, ptr %4, align 8, !tbaa !36
  call void @llvm.lifetime.start.p0(i64 8, ptr %5) #11
  %7 = load ptr, ptr %4, align 8, !tbaa !36
  %8 = getelementptr inbounds nuw %struct.GCtrace, ptr %7, i32 0, i32 12
  %9 = getelementptr inbounds nuw %struct.GCRef, ptr %8, i32 0, i32 0
  %10 = load i64, ptr %9, align 8, !tbaa !73
  %11 = inttoptr i64 %10 to ptr
  store ptr %11, ptr %5, align 8, !tbaa !64
  %12 = load ptr, ptr %3, align 8, !tbaa !4
  %13 = load ptr, ptr %4, align 8, !tbaa !36
  call void @trace_unpatch(ptr noundef %12, ptr noundef %13)
  %14 = load ptr, ptr %5, align 8, !tbaa !64
  %15 = getelementptr inbounds nuw %struct.GCproto, ptr %14, i32 0, i32 15
  %16 = load i16, ptr %15, align 2, !tbaa !74
  %17 = zext i16 %16 to i32
  %18 = load ptr, ptr %4, align 8, !tbaa !36
  %19 = getelementptr inbounds nuw %struct.GCtrace, ptr %18, i32 0, i32 20
  %20 = load i16, ptr %19, align 8, !tbaa !45
  %21 = zext i16 %20 to i32
  %22 = icmp eq i32 %17, %21
  br i1 %22, label %23, label %29

23:                                               ; preds = %2
  %24 = load ptr, ptr %4, align 8, !tbaa !36
  %25 = getelementptr inbounds nuw %struct.GCtrace, ptr %24, i32 0, i32 23
  %26 = load i16, ptr %25, align 2, !tbaa !75
  %27 = load ptr, ptr %5, align 8, !tbaa !64
  %28 = getelementptr inbounds nuw %struct.GCproto, ptr %27, i32 0, i32 15
  store i16 %26, ptr %28, align 2, !tbaa !74
  br label %86

29:                                               ; preds = %2
  %30 = load ptr, ptr %5, align 8, !tbaa !64
  %31 = getelementptr inbounds nuw %struct.GCproto, ptr %30, i32 0, i32 15
  %32 = load i16, ptr %31, align 2, !tbaa !74
  %33 = icmp ne i16 %32, 0
  br i1 %33, label %34, label %85

34:                                               ; preds = %29
  call void @llvm.lifetime.start.p0(i64 8, ptr %6) #11
  %35 = load ptr, ptr %3, align 8, !tbaa !4
  %36 = getelementptr inbounds nuw %struct.jit_State, ptr %35, i32 0, i32 36
  %37 = load ptr, ptr %36, align 8, !tbaa !50
  %38 = load ptr, ptr %5, align 8, !tbaa !64
  %39 = getelementptr inbounds nuw %struct.GCproto, ptr %38, i32 0, i32 15
  %40 = load i16, ptr %39, align 2, !tbaa !74
  %41 = zext i16 %40 to i64
  %42 = getelementptr inbounds nuw %struct.GCRef, ptr %37, i64 %41
  %43 = getelementptr inbounds nuw %struct.GCRef, ptr %42, i32 0, i32 0
  %44 = load i64, ptr %43, align 8, !tbaa !51
  %45 = inttoptr i64 %44 to ptr
  store ptr %45, ptr %6, align 8, !tbaa !36
  %46 = load ptr, ptr %6, align 8, !tbaa !36
  %47 = icmp ne ptr %46, null
  br i1 %47, label %48, label %84

48:                                               ; preds = %34
  br label %49

49:                                               ; preds = %71, %48
  %50 = load ptr, ptr %6, align 8, !tbaa !36
  %51 = getelementptr inbounds nuw %struct.GCtrace, ptr %50, i32 0, i32 23
  %52 = load i16, ptr %51, align 2, !tbaa !75
  %53 = icmp ne i16 %52, 0
  br i1 %53, label %54, label %83

54:                                               ; preds = %49
  %55 = load ptr, ptr %6, align 8, !tbaa !36
  %56 = getelementptr inbounds nuw %struct.GCtrace, ptr %55, i32 0, i32 23
  %57 = load i16, ptr %56, align 2, !tbaa !75
  %58 = zext i16 %57 to i32
  %59 = load ptr, ptr %4, align 8, !tbaa !36
  %60 = getelementptr inbounds nuw %struct.GCtrace, ptr %59, i32 0, i32 20
  %61 = load i16, ptr %60, align 8, !tbaa !45
  %62 = zext i16 %61 to i32
  %63 = icmp eq i32 %58, %62
  br i1 %63, label %64, label %70

64:                                               ; preds = %54
  %65 = load ptr, ptr %4, align 8, !tbaa !36
  %66 = getelementptr inbounds nuw %struct.GCtrace, ptr %65, i32 0, i32 23
  %67 = load i16, ptr %66, align 2, !tbaa !75
  %68 = load ptr, ptr %6, align 8, !tbaa !36
  %69 = getelementptr inbounds nuw %struct.GCtrace, ptr %68, i32 0, i32 23
  store i16 %67, ptr %69, align 2, !tbaa !75
  br label %83

70:                                               ; preds = %54
  br label %71

71:                                               ; preds = %70
  %72 = load ptr, ptr %3, align 8, !tbaa !4
  %73 = getelementptr inbounds nuw %struct.jit_State, ptr %72, i32 0, i32 36
  %74 = load ptr, ptr %73, align 8, !tbaa !50
  %75 = load ptr, ptr %6, align 8, !tbaa !36
  %76 = getelementptr inbounds nuw %struct.GCtrace, ptr %75, i32 0, i32 23
  %77 = load i16, ptr %76, align 2, !tbaa !75
  %78 = zext i16 %77 to i64
  %79 = getelementptr inbounds nuw %struct.GCRef, ptr %74, i64 %78
  %80 = getelementptr inbounds nuw %struct.GCRef, ptr %79, i32 0, i32 0
  %81 = load i64, ptr %80, align 8, !tbaa !51
  %82 = inttoptr i64 %81 to ptr
  store ptr %82, ptr %6, align 8, !tbaa !36
  br label %49, !llvm.loop !76

83:                                               ; preds = %64, %49
  br label %84

84:                                               ; preds = %83, %34
  call void @llvm.lifetime.end.p0(i64 8, ptr %6) #11
  br label %85

85:                                               ; preds = %84, %29
  br label %86

86:                                               ; preds = %85, %23
  call void @llvm.lifetime.end.p0(i64 8, ptr %5) #11
  ret void
}