; Function Attrs: nofree norecurse nosync nounwind memory(readwrite, inaccessiblemem: none) uwtable
define internal fastcc void @trace_flushroot(ptr noundef readonly captures(none) %0, ptr noundef readonly captures(none) %1) unnamed_addr #7 {
  %3 = getelementptr inbounds nuw i8, ptr %1, i64 64
  %4 = load i64, ptr %3, align 8, !tbaa !61
  %5 = inttoptr i64 %4 to ptr
  %6 = getelementptr inbounds nuw i8, ptr %1, i64 80
  %7 = load i32, ptr %6, align 8, !tbaa !62
  %8 = and i32 %7, 255
  %9 = getelementptr inbounds nuw i8, ptr %1, i64 72
  %10 = load i64, ptr %9, align 8, !tbaa !63
  %11 = inttoptr i64 %10 to ptr
  %12 = icmp eq i32 %8, 88
  br i1 %12, label %trace_unpatch.exit, label %13

13:                                               ; preds = %2
  %14 = load i32, ptr %11, align 4, !tbaa !56
  %trunc.i = trunc i32 %14 to i8
  switch i8 %trunc.i, label %trace_unpatch.exit [
    i8 81, label %15
    i8 84, label %21
    i8 87, label %21
    i8 88, label %22
    i8 91, label %31
  ]

15:                                               ; preds = %13
  store i32 %7, ptr %11, align 4, !tbaa !56
  %16 = load i32, ptr %6, align 8, !tbaa !62
  %17 = lshr i32 %16, 16
  %18 = zext nneg i32 %17 to i64
  %19 = getelementptr i32, ptr %11, i64 %18
  %20 = getelementptr i8, ptr %19, i64 -131072
  store i8 77, ptr %20, align 1, !tbaa !4
  br label %trace_unpatch.exit

21:                                               ; preds = %13, %13
  store i32 %7, ptr %11, align 4, !tbaa !56
  br label %trace_unpatch.exit

22:                                               ; preds = %13
  %23 = lshr i32 %14, 16
  %24 = zext nneg i32 %23 to i64
  %25 = getelementptr i32, ptr %11, i64 %24
  %26 = getelementptr i8, ptr %25, i64 -131064
  %27 = load i32, ptr %26, align 4, !tbaa !56
  %28 = and i32 %27, 255
  %29 = icmp eq i32 %28, 84
  br i1 %29, label %30, label %trace_unpatch.exit

30:                                               ; preds = %22
  store i32 %7, ptr %26, align 4, !tbaa !56
  br label %trace_unpatch.exit

31:                                               ; preds = %13
  store i32 %7, ptr %11, align 4, !tbaa !56
  br label %trace_unpatch.exit

trace_unpatch.exit:                               ; preds = %2, %13, %15, %21, %22, %30, %31
  %32 = getelementptr inbounds nuw i8, ptr %5, i64 62
  %33 = load i16, ptr %32, align 2, !tbaa !64
  %34 = getelementptr inbounds nuw i8, ptr %1, i64 104
  %35 = load i16, ptr %34, align 8, !tbaa !37
  %36 = icmp eq i16 %33, %35
  br i1 %36, label %37, label %40

37:                                               ; preds = %trace_unpatch.exit
  %38 = getelementptr inbounds nuw i8, ptr %1, i64 110
  %39 = load i16, ptr %38, align 2, !tbaa !65
  store i16 %39, ptr %32, align 2, !tbaa !64
  br label %.loopexit

40:                                               ; preds = %trace_unpatch.exit
  %.not = icmp eq i16 %33, 0
  br i1 %.not, label %.loopexit, label %41

41:                                               ; preds = %40
  %42 = getelementptr inbounds nuw i8, ptr %0, i64 384
  %43 = load ptr, ptr %42, align 8, !tbaa !40
  %44 = zext i16 %33 to i64
  %45 = getelementptr inbounds nuw %struct.GCRef, ptr %43, i64 %44
  %46 = load i64, ptr %45, align 8, !tbaa !41
  %.not21 = icmp eq i64 %46, 0
  br i1 %.not21, label %.loopexit, label %.preheader

.preheader:                                       ; preds = %41
  %.024 = inttoptr i64 %46 to ptr
  %47 = getelementptr inbounds nuw i8, ptr %.024, i64 110
  %48 = load i16, ptr %47, align 2, !tbaa !65
  %.not2225 = icmp eq i16 %48, 0
  br i1 %.not2225, label %.loopexit, label %.lr.ph.preheader

.lr.ph.preheader:                                 ; preds = %.preheader
  %49 = icmp eq i16 %48, %35
  br i1 %49, label %.lr.ph._crit_edge, label %.lr.ph30

.lr.ph:                                           ; preds = %.lr.ph30
  %50 = icmp eq i16 %59, %35
  br i1 %50, label %.lr.ph._crit_edge, label %.lr.ph30, !llvm.loop !66

.lr.ph._crit_edge:                                ; preds = %.lr.ph, %.lr.ph.preheader
  %.026.lcssa = phi ptr [ %.024, %.lr.ph.preheader ], [ %.0, %.lr.ph ]
  %51 = getelementptr inbounds nuw i8, ptr %.026.lcssa, i64 110
  %52 = getelementptr inbounds nuw i8, ptr %1, i64 110
  %53 = load i16, ptr %52, align 2, !tbaa !65
  store i16 %53, ptr %51, align 2, !tbaa !65
  br label %.loopexit

.lr.ph30:                                         ; preds = %.lr.ph.preheader, %.lr.ph
  %54 = phi i16 [ %59, %.lr.ph ], [ %48, %.lr.ph.preheader ]
  %55 = zext i16 %54 to i64
  %56 = getelementptr inbounds nuw %struct.GCRef, ptr %43, i64 %55
  %57 = load i64, ptr %56, align 8, !tbaa !41
  %.0 = inttoptr i64 %57 to ptr
  %58 = getelementptr inbounds nuw i8, ptr %.0, i64 110
  %59 = load i16, ptr %58, align 2, !tbaa !65
  %.not22 = icmp eq i16 %59, 0
  br i1 %.not22, label %.loopexit, label %.lr.ph, !llvm.loop !66

.loopexit:                                        ; preds = %.lr.ph30, %.preheader, %41, %.lr.ph._crit_edge, %40, %37
  ret void
}